(dp0
(VPF13417
p1
VPF00043
p2
tp3
Vhttp://www.ipfam.org/family/PF13417/fam_int/PF00043/sequence?interaction=270953
p4
s(VPF00043
p5
VPF13417
p6
tp7
Vhttp://www.ipfam.org/family/PF00043/fam_int/PF13417/sequence?interaction=270947
p8
s(VPF15447
p9
VPF05424
p10
tp11
Vhttp://www.ipfam.org/family/PF15447/fam_int/PF05424/sequence?interaction=120656
p12
s(VPF01395
p13
VPF01395
p14
tp15
Vhttp://www.ipfam.org/family/PF01395/fam_int/PF01395/sequence?interaction=172030
p16
s(VPF00303
p17
VPF00303
p18
tp19
Vhttp://www.ipfam.org/family/PF00303/fam_int/PF00303/sequence?interaction=208385
p20
s(VPF13489
p21
VPF13489
p22
tp23
Vhttp://www.ipfam.org/family/PF13489/fam_int/PF13489/sequence?interaction=75032
p24
s(VPF02800
p25
VPF00044
p26
tp27
Vhttp://www.ipfam.org/family/PF02800/fam_int/PF00044/sequence?interaction=267175
p28
s(VPF00406
p29
VPF05191
p30
tp31
Vhttp://www.ipfam.org/family/PF00406/fam_int/PF05191/sequence?interaction=208229
p32
s(VPF00208
p33
VPF02812
p34
tp35
Vhttp://www.ipfam.org/family/PF00208/fam_int/PF02812/sequence?interaction=335219
p36
s(VPF13855
p37
VPF13855
p38
tp39
Vhttp://www.ipfam.org/family/PF13855/fam_int/PF13855/sequence?interaction=200200
p40
s(VPF00026
p41
VPF00026
p42
tp43
Vhttp://www.ipfam.org/family/PF00026/fam_int/PF00026/sequence?interaction=279901
p44
s(VPF13855
p45
VPF13504
p46
tp47
Vhttp://www.ipfam.org/family/PF13855/fam_int/PF13504/sequence?interaction=200201
p48
s(VPF07977
p49
VPF07977
p50
tp51
Vhttp://www.ipfam.org/family/PF07977/fam_int/PF07977/sequence?interaction=156870
p52
s(VPF02812
p53
VPF00208
p54
tp55
Vhttp://www.ipfam.org/family/PF02812/fam_int/PF00208/sequence?interaction=335229
p56
s(VPF05424
p57
VPF05424
p58
tp59
Vhttp://www.ipfam.org/family/PF05424/fam_int/PF05424/sequence?interaction=68305
p60
s(VPF00044
p61
VPF02800
p62
tp63
Vhttp://www.ipfam.org/family/PF00044/fam_int/PF02800/sequence?interaction=267178
p64
s(VPF01126
p65
VPF01126
p66
tp67
Vhttp://www.ipfam.org/family/PF01126/fam_int/PF01126/sequence?interaction=275461
p68
s(VPF00186
p69
VPF00303
p70
tp71
Vhttp://www.ipfam.org/family/PF00186/fam_int/PF00303/sequence?interaction=208400
p72
s(VPF07703
p73
VPF00207
p74
tp75
Vhttp://www.ipfam.org/family/PF07703/fam_int/PF00207/sequence?interaction=254537
p76
s(VPF00043
p77
VPF00043
p78
tp79
Vhttp://www.ipfam.org/family/PF00043/fam_int/PF00043/sequence?interaction=270946
p80
s(VPF00956
p81
VPF00956
p82
tp83
Vhttp://www.ipfam.org/family/PF00956/fam_int/PF00956/sequence?interaction=161512
p84
s(VPF00215
p85
VPF00215
p86
tp87
Vhttp://www.ipfam.org/family/PF00215/fam_int/PF00215/sequence?interaction=96506
p88
s(VPF02798
p89
VPF00043
p90
tp91
Vhttp://www.ipfam.org/family/PF02798/fam_int/PF00043/sequence?interaction=328425
p92
s(VPF09229
p93
VPF09229
p94
tp95
Vhttp://www.ipfam.org/family/PF09229/fam_int/PF09229/sequence?interaction=78528
p96
s(VPF00043
p97
VPF02798
p98
tp99
Vhttp://www.ipfam.org/family/PF00043/fam_int/PF02798/sequence?interaction=328422
p100
s(VPF12946
p101
VPF12946
p102
tp103
Vhttp://www.ipfam.org/family/PF12946/fam_int/PF12946/sequence?interaction=221373
p104
s(VPF14497
p105
VPF14497
p106
tp107
Vhttp://www.ipfam.org/family/PF14497/fam_int/PF14497/sequence?interaction=295669
p108
s(VPF00266
p109
VPF00266
p110
tp111
Vhttp://www.ipfam.org/family/PF00266/fam_int/PF00266/sequence?interaction=303537
p112
s(VPF02800
p113
VPF02800
p114
tp115
Vhttp://www.ipfam.org/family/PF02800/fam_int/PF02800/sequence?interaction=267176
p116
s(VPF11556
p117
VPF11556
p118
tp119
Vhttp://www.ipfam.org/family/PF11556/fam_int/PF11556/sequence?interaction=184917
p120
s(VPF02812
p121
VPF02812
p122
tp123
Vhttp://www.ipfam.org/family/PF02812/fam_int/PF02812/sequence?interaction=335212
p124
s(VPF01835
p125
VPF07678
p126
tp127
Vhttp://www.ipfam.org/family/PF01835/fam_int/PF07678/sequence?interaction=254536
p128
s(VPF00121
p129
VPF00121
p130
tp131
Vhttp://www.ipfam.org/family/PF00121/fam_int/PF00121/sequence?interaction=95973
p132
s(VPF02798
p133
VPF02798
p134
tp135
Vhttp://www.ipfam.org/family/PF02798/fam_int/PF02798/sequence?interaction=166780
p136
s(VPF00077
p137
VPF00077
p138
tp139
Vhttp://www.ipfam.org/family/PF00077/fam_int/PF00077/sequence?interaction=261595
p140
s(VPF13561
p141
VPF13561
p142
tp143
Vhttp://www.ipfam.org/family/PF13561/fam_int/PF13561/sequence?interaction=199254
p144
s(VPF00207
p145
VPF07677
p146
tp147
Vhttp://www.ipfam.org/family/PF00207/fam_int/PF07677/sequence?interaction=254538
p148
s(VPF00112
p149
VPF12628
p150
tp151
Vhttp://www.ipfam.org/family/PF00112/fam_int/PF12628/sequence?interaction=232634
p152
s(VPF14497
p153
VPF02798
p154
tp155
Vhttp://www.ipfam.org/family/PF14497/fam_int/PF02798/sequence?interaction=295667
p156
s(VPF00112
p157
VPF00112
p158
tp159
Vhttp://www.ipfam.org/family/PF00112/fam_int/PF00112/sequence?interaction=130462
p160
s(VPF10569
p161
VPF07677
p162
tp163
Vhttp://www.ipfam.org/family/PF10569/fam_int/PF07677/sequence?interaction=254540
p164
s(VPF01835
p165
VPF07703
p166
tp167
Vhttp://www.ipfam.org/family/PF01835/fam_int/PF07703/sequence?interaction=254534
p168
s(VPF00274
p169
VPF00274
p170
tp171
Vhttp://www.ipfam.org/family/PF00274/fam_int/PF00274/sequence?interaction=99964
p172
s(VPF10569
p173
VPF07678
p174
tp175
Vhttp://www.ipfam.org/family/PF10569/fam_int/PF07678/sequence?interaction=254539
p176
s(VPF00112
p177
VPF00031
p178
tp179
Vhttp://www.ipfam.org/family/PF00112/fam_int/PF00031/sequence?interaction=248970
p180
s(VPF00160
p181
VPF00160
p182
tp183
Vhttp://www.ipfam.org/family/PF00160/fam_int/PF00160/sequence?interaction=159610
p184
s(VPF00550
p185
VPF00550
p186
tp187
Vhttp://www.ipfam.org/family/PF00550/fam_int/PF00550/sequence?interaction=98320
p188
s(VPF00208
p189
VPF00208
p190
tp191
Vhttp://www.ipfam.org/family/PF00208/fam_int/PF00208/sequence?interaction=335202
p192
s(VPF00481
p193
VPF00481
p194
tp195
Vhttp://www.ipfam.org/family/PF00481/fam_int/PF00481/sequence?interaction=340051
p196
s(VPF01835
p197
VPF00207
p198
tp199
Vhttp://www.ipfam.org/family/PF01835/fam_int/PF00207/sequence?interaction=254535
p200
s(VPF01048
p201
VPF01048
p202
tp203
Vhttp://www.ipfam.org/family/PF01048/fam_int/PF01048/sequence?interaction=269504
p204
s(VPF02798
p205
VPF14497
p206
tp207
Vhttp://www.ipfam.org/family/PF02798/fam_int/PF14497/sequence?interaction=295670
p208
s(VPF07678
p209
VPF07677
p210
tp211
Vhttp://www.ipfam.org/family/PF07678/fam_int/PF07677/sequence?interaction=254541
p212
s(VPF00056
p213
VPF02866
p214
tp215
Vhttp://www.ipfam.org/family/PF00056/fam_int/PF02866/sequence?interaction=279810
p216
s.