(dp0
V2YK0
p1
(lp2
(VPF15447
p3
VPF05424
p4
tp5
asV3BQL
p6
(lp7
sV3UJD
p8
(lp9
sV3UJB
p10
(lp11
sV3UJC
p12
(lp13
sV2NY9
p14
(lp15
sV2NY8
p16
(lp17
sV1ZW1
p18
(lp19
(VPF13561
p20
VPF13561
p21
tp22
a(VPF13561
p23
VPF13561
p24
tp25
a(VPF13561
p26
VPF13561
p27
tp28
a(VPF13561
p29
VPF13561
p30
tp31
a(VPF13561
p32
VPF13561
p33
tp34
asV2IGX
p35
(lp36
sV2IGY
p37
(lp38
(VPF00026
p39
VPF00026
p40
tp41
asV3QS1
p42
(lp43
(VPF00026
p44
VPF00026
p45
tp46
a(VPF00026
p47
VPF00026
p48
tp49
a(VPF00026
p50
VPF00026
p51
tp52
a(VPF00026
p53
VPF00026
p54
tp55
a(VPF00026
p56
VPF00026
p57
tp58
a(VPF00026
p59
VPF00026
p60
tp61
asV2FQ2
p62
(lp63
sV2FQ0
p64
(lp65
sV2ZA3
p66
(lp67
(VPF00215
p68
VPF00215
p69
tp70
asV2ZA2
p71
(lp72
(VPF00215
p73
VPF00215
p74
tp75
asV2ZA1
p76
(lp77
(VPF00215
p78
VPF00215
p79
tp80
asV4JNO
p81
(lp82
(VPF05424
p83
VPF05424
p84
tp85
asV1NHG
p86
(lp87
(VPF13561
p88
VPF13561
p89
tp90
a(VPF13561
p91
VPF13561
p92
tp93
a(VPF13561
p94
VPF13561
p95
tp96
a(VPF13561
p97
VPF13561
p98
tp99
a(VPF13561
p100
VPF13561
p101
tp102
asV2QEV
p103
(lp104
sV2OP1
p105
(lp106
(VPF13561
p107
VPF13561
p108
tp109
a(VPF13561
p110
VPF13561
p111
tp112
a(VPF13561
p113
VPF13561
p114
tp115
a(VPF13561
p116
VPF13561
p117
tp118
a(VPF13561
p119
VPF13561
p120
tp121
asV2OP0
p122
(lp123
(VPF13561
p124
VPF13561
p125
tp126
a(VPF13561
p127
VPF13561
p128
tp129
a(VPF13561
p130
VPF13561
p131
tp132
a(VPF13561
p133
VPF13561
p134
tp135
a(VPF13561
p136
VPF13561
p137
tp138
asV1LF3
p139
(lp140
sV2E3G
p141
(lp142
sV4F1K
p143
(lp144
sV1PFZ
p145
(lp146
(VPF00026
p147
VPF00026
p148
tp149
a(VPF00026
p150
VPF00026
p151
tp152
a(VPF00026
p153
VPF00026
p154
tp155
a(VPF00026
p156
VPF00026
p157
tp158
a(VPF00026
p159
VPF00026
p160
tp161
asV2QEB
p162
(lp163
(VPF01395
p164
VPF01395
p165
tp166
asV3AM4
p167
(lp168
(VPF13561
p169
VPF13561
p170
tp171
a(VPF13561
p172
VPF13561
p173
tp174
a(VPF13561
p175
VPF13561
p176
tp177
a(VPF13561
p178
VPF13561
p179
tp180
a(VPF13561
p181
VPF13561
p182
tp183
asV2QEO
p184
(lp185
(VPF01395
p186
VPF01395
p187
tp188
asV2QEH
p189
(lp190
sV2NZ3
p191
(lp192
sV2CH1
p193
(lp194
(VPF00266
p195
VPF00266
p196
tp197
a(VPF00266
p198
VPF00266
p199
tp200
a(VPF00266
p201
VPF00266
p202
tp203
a(VPF00266
p204
VPF00266
p205
tp206
asV2PC4
p207
(lp208
(VPF00274
p209
VPF00274
p210
tp211
a(VPF00274
p212
VPF00274
p213
tp214
a(VPF00274
p215
VPF00274
p216
tp217
a(VPF00274
p218
VPF00274
p219
tp220
a(VPF00274
p221
VPF00274
p222
tp223
a(VPF00274
p224
VPF00274
p225
tp226
asV1V35
p227
(lp228
(VPF13561
p229
VPF13561
p230
tp231
a(VPF13561
p232
VPF13561
p233
tp234
a(VPF13561
p235
VPF13561
p236
tp237
a(VPF13561
p238
VPF13561
p239
tp240
a(VPF13561
p241
VPF13561
p242
tp243
asV2XU0
p244
(lp245
(VPF15447
p246
VPF05424
p247
tp248
asV1M7O
p249
(lp250
(VPF00121
p251
VPF00121
p252
tp253
asV1OKT
p254
(lp255
(VPF02798
p256
VPF14497
p257
tp258
a(VPF02798
p259
VPF14497
p260
tp261
a(VPF02798
p262
VPF14497
p263
tp264
a(VPF14497
p265
VPF14497
p266
tp267
a(VPF14497
p268
VPF02798
p269
tp270
asV3BQI
p271
(lp272
sV1M7P
p273
(lp274
(VPF00121
p275
VPF00121
p276
tp277
asV2PML
p278
(lp279
sV3NI8
p280
(lp281
sV3VI2
p282
(lp283
sV2OOS
p284
(lp285
(VPF13561
p286
VPF13561
p287
tp288
a(VPF13561
p289
VPF13561
p290
tp291
a(VPF13561
p292
VPF13561
p293
tp294
a(VPF13561
p295
VPF13561
p296
tp297
a(VPF13561
p298
VPF13561
p299
tp300
asV1YDV
p301
(lp302
(VPF00121
p303
VPF00121
p304
tp305
asV1VGA
p306
(lp307
(VPF00121
p308
VPF00121
p309
tp310
a(VPF00121
p311
VPF00121
p312
tp313
a(VPF00121
p314
VPF00121
p315
tp316
a(VPF00121
p317
VPF00121
p318
tp319
asV2RJI
p320
(lp321
(VPF11556
p322
VPF11556
p323
tp324
asV3QVC
p325
(lp326
sV1XDH
p327
(lp328
(VPF00026
p329
VPF00026
p330
tp331
asV2LU1
p332
(lp333
sV1PN9
p334
(lp335
(VPF00043
p336
VPF00043
p337
tp338
a(VPF00043
p339
VPF02798
p340
tp341
a(VPF02798
p342
VPF00043
p343
tp344
a(VPF02798
p345
VPF00043
p346
tp347
a(VPF02798
p348
VPF00043
p349
tp350
asV3O53
p351
(lp352
sV2CH2
p353
(lp354
(VPF00266
p355
VPF00266
p356
tp357
a(VPF00266
p358
VPF00266
p359
tp360
a(VPF00266
p361
VPF00266
p362
tp363
a(VPF00266
p364
VPF00266
p365
tp366
asV3PM2
p367
(lp368
sV3UJ8
p369
(lp370
sV3UJ9
p371
(lp372
sV3UJ6
p373
(lp374
sV3UJ7
p375
(lp376
(VPF13489
p377
VPF13489
p378
tp379
asV1M43
p380
(lp381
(VPF00026
p382
VPF00026
p383
tp384
asV3CML
p385
(lp386
sV3UM5
p387
(lp388
(VPF00186
p389
VPF00303
p390
tp391
asV4FYM
p392
(lp393
sV4FQT
p394
(lp395
sV1LYX
p396
(lp397
sV2B4R
p398
(lp399
(VPF00044
p400
VPF02800
p401
tp402
a(VPF00044
p403
VPF02800
p404
tp405
a(VPF00044
p406
VPF02800
p407
tp408
a(VPF00044
p409
VPF02800
p410
tp411
a(VPF00044
p412
VPF02800
p413
tp414
a(VPF00044
p415
VPF02800
p416
tp417
a(VPF00044
p418
VPF02800
p419
tp420
a(VPF00044
p421
VPF02800
p422
tp423
a(VPF02800
p424
VPF02800
p425
tp426
a(VPF02800
p427
VPF00044
p428
tp429
a(VPF02800
p430
VPF02800
p431
tp432
a(VPF02800
p433
VPF00044
p434
tp435
a(VPF02800
p436
VPF00044
p437
tp438
a(VPF02800
p439
VPF02800
p440
tp441
a(VPF02800
p442
VPF00044
p443
tp444
a(VPF02800
p445
VPF02800
p446
tp447
asV4B7U
p448
(lp449
(VPF00056
p450
VPF02866
p451
tp452
asV4DPH
p453
(lp454
(VPF00186
p455
VPF00303
p456
tp457
asV1NNU
p458
(lp459
(VPF13561
p460
VPF13561
p461
tp462
a(VPF13561
p463
VPF13561
p464
tp465
a(VPF13561
p466
VPF13561
p467
tp468
a(VPF13561
p469
VPF13561
p470
tp471
a(VPF13561
p472
VPF13561
p473
tp474
asV4D94
p475
(lp476
(VPF00207
p477
VPF07677
p478
tp479
a(VPF01835
p480
VPF07703
p481
tp482
a(VPF01835
p483
VPF00207
p484
tp485
a(VPF01835
p486
VPF07678
p487
tp488
a(VPF07678
p489
VPF07677
p490
tp491
a(VPF07703
p492
VPF00207
p493
tp494
a(VPF10569
p495
VPF07678
p496
tp497
a(VPF10569
p498
VPF07677
p499
tp500
asV3TLX
p501
(lp502
(VPF00406
p503
VPF05191
p504
tp505
a(VPF00406
p506
VPF05191
p507
tp508
asV3R1V
p509
(lp510
(VPF01395
p511
VPF01395
p512
tp513
asV3R1P
p514
(lp515
(VPF01395
p516
VPF01395
p517
tp518
a(VPF01395
p519
VPF01395
p520
tp521
a(VPF01395
p522
VPF01395
p523
tp524
a(VPF01395
p525
VPF01395
p526
tp527
a(VPF01395
p528
VPF01395
p529
tp530
a(VPF01395
p531
VPF01395
p532
tp533
a(VPF01395
p534
VPF01395
p535
tp536
a(VPF01395
p537
VPF01395
p538
tp539
a(VPF01395
p540
VPF01395
p541
tp542
asV3QVI
p543
(lp544
(VPF00026
p545
VPF00026
p546
tp547
a(VPF00026
p548
VPF00026
p549
tp550
a(VPF00026
p551
VPF00026
p552
tp553
a(VPF00026
p554
VPF00026
p555
tp556
a(VPF00026
p557
VPF00026
p558
tp559
a(VPF00026
p560
VPF00026
p561
tp562
asV4F7F
p563
(lp564
sV2ERB
p565
(lp566
(VPF01395
p567
VPF01395
p568
tp569
asV3Q8I
p570
(lp571
sV3JSU
p572
(lp573
(VPF00186
p574
VPF00303
p575
tp576
a(VPF00186
p577
VPF00303
p578
tp579
a(VPF00303
p580
VPF00303
p581
tp582
asV3R1O
p583
(lp584
(VPF01395
p585
VPF01395
p586
tp587
asV3PSV
p588
(lp589
(VPF00121
p590
VPF00121
p591
tp592
asV3PJI
p593
(lp594
sV2Y8D
p595
(lp596
sV3BPF
p597
(lp598
(VPF00112
p599
VPF00112
p600
tp601
a(VPF00112
p602
VPF00112
p603
tp604
a(VPF00112
p605
VPF00112
p606
tp607
a(VPF00112
p608
VPF00112
p609
tp610
asV1WZD
p611
(lp612
(VPF01126
p613
VPF01126
p614
tp615
asV3UM8
p616
(lp617
(VPF00186
p618
VPF00303
p619
tp620
asV3UM6
p621
(lp622
(VPF00186
p623
VPF00303
p624
tp625
asV3BPM
p626
(lp627
(VPF00112
p628
VPF00112
p629
tp630
asV3PSW
p631
(lp632
(VPF00121
p633
VPF00121
p634
tp635
asV3C02
p636
(lp637
sV2AAW
p638
(lp639
(VPF02798
p640
VPF14497
p641
tp642
a(VPF02798
p643
VPF02798
p644
tp645
a(VPF02798
p646
VPF14497
p647
tp648
a(VPF02798
p649
VPF14497
p650
tp651
a(VPF14497
p652
VPF14497
p653
tp654
a(VPF14497
p655
VPF02798
p656
tp657
asV1LF4
p658
(lp659
sV1BVO
p660
(lp661
sV2P4S
p662
(lp663
(VPF01048
p664
VPF01048
p665
tp666
a(VPF01048
p667
VPF01048
p668
tp669
a(VPF01048
p670
VPF01048
p671
tp672
asV2BBX
p673
(lp674
sV1LF2
p675
(lp676
sV3BQK
p677
(lp678
sV2J5L
p679
(lp680
sV1HN6
p681
(lp682
sV3LT4
p683
(lp684
(VPF13561
p685
VPF13561
p686
tp687
a(VPF13561
p688
VPF13561
p689
tp690
a(VPF13561
p691
VPF13561
p692
tp693
a(VPF13561
p694
VPF13561
p695
tp696
a(VPF13561
p697
VPF13561
p698
tp699
asV2BJU
p700
(lp701
sV3LT1
p702
(lp703
(VPF13561
p704
VPF13561
p705
tp706
a(VPF13561
p707
VPF13561
p708
tp709
a(VPF13561
p710
VPF13561
p711
tp712
a(VPF13561
p713
VPF13561
p714
tp715
a(VPF13561
p716
VPF13561
p717
tp718
asV3LT0
p719
(lp720
(VPF13561
p721
VPF13561
p722
tp723
a(VPF13561
p724
VPF13561
p725
tp726
a(VPF13561
p727
VPF13561
p728
tp729
a(VPF13561
p730
VPF13561
p731
tp732
a(VPF13561
p733
VPF13561
p734
tp735
asV2ZCG
p736
(lp737
(VPF00215
p738
VPF00215
p739
tp740
asV3LT2
p741
(lp742
(VPF13561
p743
VPF13561
p744
tp745
a(VPF13561
p746
VPF13561
p747
tp748
a(VPF13561
p749
VPF13561
p750
tp751
a(VPF13561
p752
VPF13561
p753
tp754
a(VPF13561
p755
VPF13561
p756
tp757
asV3UJA
p758
(lp759
sV3QME
p760
(lp761
sV1PSM
p762
(lp763
sV2B4T
p764
(lp765
(VPF00044
p766
VPF02800
p767
tp768
a(VPF00044
p769
VPF02800
p770
tp771
a(VPF00044
p772
VPF02800
p773
tp774
a(VPF00044
p775
VPF02800
p776
tp777
a(VPF00044
p778
VPF02800
p779
tp780
a(VPF00044
p781
VPF02800
p782
tp783
a(VPF00044
p784
VPF02800
p785
tp786
a(VPF00044
p787
VPF02800
p788
tp789
a(VPF02800
p790
VPF00044
p791
tp792
a(VPF02800
p793
VPF02800
p794
tp795
a(VPF02800
p796
VPF00044
p797
tp798
a(VPF02800
p799
VPF02800
p800
tp801
a(VPF02800
p802
VPF02800
p803
tp804
a(VPF02800
p805
VPF00044
p806
tp807
a(VPF02800
p808
VPF00044
p809
tp810
a(VPF02800
p811
VPF02800
p812
tp813
asV3AZ8
p814
(lp815
(VPF07977
p816
VPF07977
p817
tp818
a(VPF07977
p819
VPF07977
p820
tp821
a(VPF07977
p822
VPF07977
p823
tp824
a(VPF07977
p825
VPF07977
p826
tp827
a(VPF07977
p828
VPF07977
p829
tp830
a(VPF07977
p831
VPF07977
p832
tp833
a(VPF07977
p834
VPF07977
p835
tp836
a(VPF07977
p837
VPF07977
p838
tp839
a(VPF07977
p840
VPF07977
p841
tp842
a(VPF07977
p843
VPF07977
p844
tp845
a(VPF07977
p846
VPF07977
p847
tp848
a(VPF07977
p849
VPF07977
p850
tp851
a(VPF07977
p852
VPF07977
p853
tp854
a(VPF07977
p855
VPF07977
p856
tp857
a(VPF07977
p858
VPF07977
p859
tp860
a(VPF07977
p861
VPF07977
p862
tp863
a(VPF07977
p864
VPF07977
p865
tp866
a(VPF07977
p867
VPF07977
p868
tp869
a(VPF07977
p870
VPF07977
p871
tp872
a(VPF07977
p873
VPF07977
p874
tp875
a(VPF07977
p876
VPF07977
p877
tp878
a(VPF07977
p879
VPF07977
p880
tp881
a(VPF07977
p882
VPF07977
p883
tp884
a(VPF07977
p885
VPF07977
p886
tp887
a(VPF07977
p888
VPF07977
p889
tp890
a(VPF07977
p891
VPF07977
p892
tp893
a(VPF07977
p894
VPF07977
p895
tp896
a(VPF07977
p897
VPF07977
p898
tp899
a(VPF07977
p900
VPF07977
p901
tp902
a(VPF07977
p903
VPF07977
p904
tp905
a(VPF07977
p906
VPF07977
p907
tp908
a(VPF07977
p909
VPF07977
p910
tp911
a(VPF07977
p912
VPF07977
p913
tp914
asV3AZ9
p915
(lp916
(VPF07977
p917
VPF07977
p918
tp919
a(VPF07977
p920
VPF07977
p921
tp922
a(VPF07977
p923
VPF07977
p924
tp925
a(VPF07977
p926
VPF07977
p927
tp928
a(VPF07977
p929
VPF07977
p930
tp931
a(VPF07977
p932
VPF07977
p933
tp934
a(VPF07977
p935
VPF07977
p936
tp937
a(VPF07977
p938
VPF07977
p939
tp940
a(VPF07977
p941
VPF07977
p942
tp943
a(VPF07977
p944
VPF07977
p945
tp946
a(VPF07977
p947
VPF07977
p948
tp949
a(VPF07977
p950
VPF07977
p951
tp952
a(VPF07977
p953
VPF07977
p954
tp955
a(VPF07977
p956
VPF07977
p957
tp958
a(VPF07977
p959
VPF07977
p960
tp961
a(VPF07977
p962
VPF07977
p963
tp964
a(VPF07977
p965
VPF07977
p966
tp967
a(VPF07977
p968
VPF07977
p969
tp970
a(VPF07977
p971
VPF07977
p972
tp973
a(VPF07977
p974
VPF07977
p975
tp976
a(VPF07977
p977
VPF07977
p978
tp979
a(VPF07977
p980
VPF07977
p981
tp982
a(VPF07977
p983
VPF07977
p984
tp985
a(VPF07977
p986
VPF07977
p987
tp988
a(VPF07977
p989
VPF07977
p990
tp991
a(VPF07977
p992
VPF07977
p993
tp994
a(VPF07977
p995
VPF07977
p996
tp997
a(VPF07977
p998
VPF07977
p999
tp1000
a(VPF07977
p1001
VPF07977
p1002
tp1003
a(VPF07977
p1004
VPF07977
p1005
tp1006
a(VPF07977
p1007
VPF07977
p1008
tp1009
a(VPF07977
p1010
VPF07977
p1011
tp1012
a(VPF07977
p1013
VPF07977
p1014
tp1015
a(VPF07977
p1016
VPF07977
p1017
tp1018
a(VPF07977
p1019
VPF07977
p1020
tp1021
a(VPF07977
p1022
VPF07977
p1023
tp1024
asV3QGT
p1025
(lp1026
(VPF00186
p1027
VPF00303
p1028
tp1029
a(VPF00186
p1030
VPF00303
p1031
tp1032
a(VPF00303
p1033
VPF00303
p1034
tp1035
asV1A5C
p1036
(lp1037
(VPF00274
p1038
VPF00274
p1039
tp1040
asV3FR9
p1041
(lp1042
(VPF02798
p1043
VPF14497
p1044
tp1045
a(VPF02798
p1046
VPF14497
p1047
tp1048
a(VPF02798
p1049
VPF02798
p1050
tp1051
a(VPF02798
p1052
VPF14497
p1053
tp1054
a(VPF14497
p1055
VPF02798
p1056
tp1057
a(VPF14497
p1058
VPF14497
p1059
tp1060
asV1Q4J
p1061
(lp1062
(VPF02798
p1063
VPF14497
p1064
tp1065
a(VPF02798
p1066
VPF14497
p1067
tp1068
a(VPF02798
p1069
VPF14497
p1070
tp1071
a(VPF14497
p1072
VPF02798
p1073
tp1074
a(VPF14497
p1075
VPF14497
p1076
tp1077
asV3L47
p1078
(lp1079
sV1ZRL
p1080
(lp1081
sV1QNH
p1082
(lp1083
(VPF00160
p1084
VPF00160
p1085
tp1086
asV2BMA
p1087
(lp1088
(VPF00208
p1089
VPF00208
p1090
tp1091
a(VPF00208
p1092
VPF02812
p1093
tp1094
a(VPF00208
p1095
VPF02812
p1096
tp1097
a(VPF00208
p1098
VPF02812
p1099
tp1100
a(VPF00208
p1101
VPF02812
p1102
tp1103
a(VPF00208
p1104
VPF00208
p1105
tp1106
a(VPF00208
p1107
VPF00208
p1108
tp1109
a(VPF00208
p1110
VPF02812
p1111
tp1112
a(VPF00208
p1113
VPF00208
p1114
tp1115
a(VPF00208
p1116
VPF02812
p1117
tp1118
a(VPF00208
p1119
VPF00208
p1120
tp1121
a(VPF00208
p1122
VPF00208
p1123
tp1124
a(VPF00208
p1125
VPF02812
p1126
tp1127
a(VPF00208
p1128
VPF02812
p1129
tp1130
a(VPF00208
p1131
VPF02812
p1132
tp1133
a(VPF02812
p1134
VPF02812
p1135
tp1136
a(VPF02812
p1137
VPF00208
p1138
tp1139
a(VPF02812
p1140
VPF02812
p1141
tp1142
a(VPF02812
p1143
VPF00208
p1144
tp1145
a(VPF02812
p1146
VPF00208
p1147
tp1148
a(VPF02812
p1149
VPF02812
p1150
tp1151
a(VPF02812
p1152
VPF02812
p1153
tp1154
a(VPF02812
p1155
VPF00208
p1156
tp1157
a(VPF02812
p1158
VPF00208
p1159
tp1160
a(VPF02812
p1161
VPF00208
p1162
tp1163
a(VPF02812
p1164
VPF02812
p1165
tp1166
a(VPF02812
p1167
VPF02812
p1168
tp1169
a(VPF02812
p1170
VPF00208
p1171
tp1172
a(VPF02812
p1173
VPF00208
p1174
tp1175
a(VPF02812
p1176
VPF02812
p1177
tp1178
a(VPF02812
p1179
VPF02812
p1180
tp1181
a(VPF02812
p1182
VPF00208
p1183
tp1184
a(VPF02812
p1185
VPF00208
p1186
tp1187
a(VPF02812
p1188
VPF02812
p1189
tp1190
a(VPF02812
p1191
VPF00208
p1192
tp1193
a(VPF02812
p1194
VPF02812
p1195
tp1196
a(VPF02812
p1197
VPF02812
p1198
tp1199
a(VPF02812
p1200
VPF00208
p1201
tp1202
a(VPF02812
p1203
VPF02812
p1204
tp1205
a(VPF02812
p1206
VPF00208
p1207
tp1208
a(VPF02812
p1209
VPF00208
p1210
tp1211
a(VPF02812
p1212
VPF00208
p1213
tp1214
asV3FR3
p1215
(lp1216
(VPF02798
p1217
VPF14497
p1218
tp1219
a(VPF02798
p1220
VPF14497
p1221
tp1222
a(VPF02798
p1223
VPF14497
p1224
tp1225
a(VPF14497
p1226
VPF02798
p1227
tp1228
asV1QNG
p1229
(lp1230
sV1YVB
p1231
(lp1232
(VPF00112
p1233
VPF00031
p1234
tp1235
asV3FR6
p1236
(lp1237
(VPF02798
p1238
VPF14497
p1239
tp1240
a(VPF02798
p1241
VPF14497
p1242
tp1243
a(VPF02798
p1244
VPF14497
p1245
tp1246
a(VPF14497
p1247
VPF02798
p1248
tp1249
a(VPF14497
p1250
VPF14497
p1251
tp1252
asV2IRM
p1253
(lp1254
sV2R9B
p1255
(lp1256
(VPF00026
p1257
VPF00026
p1258
tp1259
asV3PY2
p1260
(lp1261
(VPF00121
p1262
VPF00121
p1263
tp1264
asV4GF2
p1265
(lp1266
(VPF05424
p1267
VPF05424
p1268
tp1269
asV1LZO
p1270
(lp1271
(VPF00121
p1272
VPF00121
p1273
tp1274
a(VPF00121
p1275
VPF00121
p1276
tp1277
a(VPF00121
p1278
VPF00121
p1279
tp1280
a(VPF00121
p1281
VPF00121
p1282
tp1283
asV2IL3
p1284
(lp1285
(VPF00043
p1286
VPF00043
p1287
tp1288
a(VPF00043
p1289
VPF13417
p1290
tp1291
a(VPF13417
p1292
VPF00043
p1293
tp1294
a(VPF13417
p1295
VPF00043
p1296
tp1297
a(VPF13417
p1298
VPF00043
p1299
tp1300
asV2PQL
p1301
(lp1302
sV2X8L
p1303
(lp1304
(VPF00056
p1305
VPF02866
p1306
tp1307
asV1UH5
p1308
(lp1309
(VPF13561
p1310
VPF13561
p1311
tp1312
a(VPF13561
p1313
VPF13561
p1314
tp1315
a(VPF13561
p1316
VPF13561
p1317
tp1318
a(VPF13561
p1319
VPF13561
p1320
tp1321
a(VPF13561
p1322
VPF13561
p1323
tp1324
asV2OL4
p1325
(lp1326
(VPF13561
p1327
VPF13561
p1328
tp1329
a(VPF13561
p1330
VPF13561
p1331
tp1332
a(VPF13561
p1333
VPF13561
p1334
tp1335
a(VPF13561
p1336
VPF13561
p1337
tp1338
a(VPF13561
p1339
VPF13561
p1340
tp1341
asV4FGZ
p1342
(lp1343
sV3GZL
p1344
(lp1345
sV3GZM
p1346
(lp1347
(VPF00550
p1348
VPF00550
p1349
tp1350
asV2OKH
p1351
(lp1352
(VPF07977
p1353
VPF07977
p1354
tp1355
asV2OKI
p1356
(lp1357
(VPF07977
p1358
VPF07977
p1359
tp1360
asV2VFF
p1361
(lp1362
(VPF00121
p1363
VPF00121
p1364
tp1365
asV2VFG
p1366
(lp1367
(VPF00121
p1368
VPF00121
p1369
tp1370
a(VPF00121
p1371
VPF00121
p1372
tp1373
a(VPF00121
p1374
VPF00121
p1375
tp1376
asV1ZSN
p1377
(lp1378
(VPF13561
p1379
VPF13561
p1380
tp1381
a(VPF13561
p1382
VPF13561
p1383
tp1384
a(VPF13561
p1385
VPF13561
p1386
tp1387
a(VPF13561
p1388
VPF13561
p1389
tp1390
a(VPF13561
p1391
VPF13561
p1392
tp1393
asV2VFE
p1394
(lp1395
(VPF00121
p1396
VPF00121
p1397
tp1398
asV3C64
p1399
(lp1400
sV3LSY
p1401
(lp1402
(VPF13561
p1403
VPF13561
p1404
tp1405
a(VPF13561
p1406
VPF13561
p1407
tp1408
a(VPF13561
p1409
VPF13561
p1410
tp1411
a(VPF13561
p1412
VPF13561
p1413
tp1414
a(VPF13561
p1415
VPF13561
p1416
tp1417
asV2E3F
p1418
(lp1419
sV3OJA
p1420
(lp1421
(VPF13855
p1422
VPF13855
p1423
tp1424
a(VPF13855
p1425
VPF13504
p1426
tp1427
asV2VFH
p1428
(lp1429
(VPF00121
p1430
VPF00121
p1431
tp1432
asV2VFI
p1433
(lp1434
(VPF00121
p1435
VPF00121
p1436
tp1437
asV2GHU
p1438
(lp1439
(VPF00112
p1440
VPF00112
p1441
tp1442
a(VPF00112
p1443
VPF00112
p1444
tp1445
a(VPF00112
p1446
VPF00112
p1447
tp1448
a(VPF00112
p1449
VPF00112
p1450
tp1451
asV4F1J
p1452
(lp1453
sV1W6H
p1454
(lp1455
sV1W6I
p1456
(lp1457
sV3L4A
p1458
(lp1459
sV2PN5
p1460
(lp1461
(VPF00207
p1462
VPF07677
p1463
tp1464
a(VPF01835
p1465
VPF07703
p1466
tp1467
a(VPF01835
p1468
VPF00207
p1469
tp1470
a(VPF01835
p1471
VPF07678
p1472
tp1473
a(VPF07678
p1474
VPF07677
p1475
tp1476
a(VPF07703
p1477
VPF00207
p1478
tp1479
a(VPF10569
p1480
VPF07678
p1481
tp1482
a(VPF10569
p1483
VPF07677
p1484
tp1485
asV1SME
p1486
(lp1487
sV4LNV
p1488
(lp1489
(VPF00207
p1490
VPF07677
p1491
tp1492
a(VPF01835
p1493
VPF07703
p1494
tp1495
a(VPF01835
p1496
VPF00207
p1497
tp1498
a(VPF01835
p1499
VPF07678
p1500
tp1501
a(VPF07678
p1502
VPF07677
p1503
tp1504
a(VPF07703
p1505
VPF00207
p1506
tp1507
a(VPF10569
p1508
VPF07678
p1509
tp1510
a(VPF10569
p1511
VPF07677
p1512
tp1513
asV3L4L
p1514
(lp1515
sV3FRC
p1516
(lp1517
(VPF02798
p1518
VPF14497
p1519
tp1520
a(VPF02798
p1521
VPF02798
p1522
tp1523
a(VPF02798
p1524
VPF14497
p1525
tp1526
a(VPF02798
p1527
VPF14497
p1528
tp1529
a(VPF14497
p1530
VPF02798
p1531
tp1532
a(VPF14497
p1533
VPF14497
p1534
tp1535
asV3QG2
p1536
(lp1537
(VPF00186
p1538
VPF00303
p1539
tp1540
a(VPF00186
p1541
VPF00303
p1542
tp1543
a(VPF00303
p1544
VPF00303
p1545
tp1546
asV3AZB
p1547
(lp1548
(VPF07977
p1549
VPF07977
p1550
tp1551
a(VPF07977
p1552
VPF07977
p1553
tp1554
a(VPF07977
p1555
VPF07977
p1556
tp1557
a(VPF07977
p1558
VPF07977
p1559
tp1560
a(VPF07977
p1561
VPF07977
p1562
tp1563
a(VPF07977
p1564
VPF07977
p1565
tp1566
a(VPF07977
p1567
VPF07977
p1568
tp1569
a(VPF07977
p1570
VPF07977
p1571
tp1572
a(VPF07977
p1573
VPF07977
p1574
tp1575
a(VPF07977
p1576
VPF07977
p1577
tp1578
a(VPF07977
p1579
VPF07977
p1580
tp1581
a(VPF07977
p1582
VPF07977
p1583
tp1584
a(VPF07977
p1585
VPF07977
p1586
tp1587
a(VPF07977
p1588
VPF07977
p1589
tp1590
a(VPF07977
p1591
VPF07977
p1592
tp1593
a(VPF07977
p1594
VPF07977
p1595
tp1596
a(VPF07977
p1597
VPF07977
p1598
tp1599
a(VPF07977
p1600
VPF07977
p1601
tp1602
a(VPF07977
p1603
VPF07977
p1604
tp1605
a(VPF07977
p1606
VPF07977
p1607
tp1608
a(VPF07977
p1609
VPF07977
p1610
tp1611
a(VPF07977
p1612
VPF07977
p1613
tp1614
a(VPF07977
p1615
VPF07977
p1616
tp1617
a(VPF07977
p1618
VPF07977
p1619
tp1620
a(VPF07977
p1621
VPF07977
p1622
tp1623
a(VPF07977
p1624
VPF07977
p1625
tp1626
a(VPF07977
p1627
VPF07977
p1628
tp1629
a(VPF07977
p1630
VPF07977
p1631
tp1632
a(VPF07977
p1633
VPF07977
p1634
tp1635
a(VPF07977
p1636
VPF07977
p1637
tp1638
a(VPF07977
p1639
VPF07977
p1640
tp1641
a(VPF07977
p1642
VPF07977
p1643
tp1644
asV3AZA
p1645
(lp1646
(VPF07977
p1647
VPF07977
p1648
tp1649
a(VPF07977
p1650
VPF07977
p1651
tp1652
a(VPF07977
p1653
VPF07977
p1654
tp1655
a(VPF07977
p1656
VPF07977
p1657
tp1658
a(VPF07977
p1659
VPF07977
p1660
tp1661
a(VPF07977
p1662
VPF07977
p1663
tp1664
a(VPF07977
p1665
VPF07977
p1666
tp1667
a(VPF07977
p1668
VPF07977
p1669
tp1670
a(VPF07977
p1671
VPF07977
p1672
tp1673
a(VPF07977
p1674
VPF07977
p1675
tp1676
a(VPF07977
p1677
VPF07977
p1678
tp1679
a(VPF07977
p1680
VPF07977
p1681
tp1682
a(VPF07977
p1683
VPF07977
p1684
tp1685
a(VPF07977
p1686
VPF07977
p1687
tp1688
a(VPF07977
p1689
VPF07977
p1690
tp1691
a(VPF07977
p1692
VPF07977
p1693
tp1694
a(VPF07977
p1695
VPF07977
p1696
tp1697
a(VPF07977
p1698
VPF07977
p1699
tp1700
a(VPF07977
p1701
VPF07977
p1702
tp1703
a(VPF07977
p1704
VPF07977
p1705
tp1706
a(VPF07977
p1707
VPF07977
p1708
tp1709
a(VPF07977
p1710
VPF07977
p1711
tp1712
a(VPF07977
p1713
VPF07977
p1714
tp1715
a(VPF07977
p1716
VPF07977
p1717
tp1718
a(VPF07977
p1719
VPF07977
p1720
tp1721
a(VPF07977
p1722
VPF07977
p1723
tp1724
a(VPF07977
p1725
VPF07977
p1726
tp1727
a(VPF07977
p1728
VPF07977
p1729
tp1730
a(VPF07977
p1731
VPF07977
p1732
tp1733
a(VPF07977
p1734
VPF07977
p1735
tp1736
a(VPF07977
p1737
VPF07977
p1738
tp1739
asV3VB1
p1740
(lp1741
sV1O5X
p1742
(lp1743
(VPF00121
p1744
VPF00121
p1745
tp1746
asV1ZRO
p1747
(lp1748
(VPF05424
p1749
VPF05424
p1750
tp1751
a(VPF05424
p1752
VPF05424
p1753
tp1754
a(VPF05424
p1755
VPF05424
p1756
tp1757
asV1ZXL
p1758
(lp1759
(VPF13561
p1760
VPF13561
p1761
tp1762
a(VPF13561
p1763
VPF13561
p1764
tp1765
a(VPF13561
p1766
VPF13561
p1767
tp1768
a(VPF13561
p1769
VPF13561
p1770
tp1771
a(VPF13561
p1772
VPF13561
p1773
tp1774
asV2E3E
p1775
(lp1776
sV3CPZ
p1777
(lp1778
sV3QRV
p1779
(lp1780
(VPF00026
p1781
VPF00026
p1782
tp1783
asV1ZXB
p1784
(lp1785
(VPF13561
p1786
VPF13561
p1787
tp1788
a(VPF13561
p1789
VPF13561
p1790
tp1791
a(VPF13561
p1792
VPF13561
p1793
tp1794
a(VPF13561
p1795
VPF13561
p1796
tp1797
a(VPF13561
p1798
VPF13561
p1799
tp1800
asV3V2L
p1801
(lp1802
sV1P9B
p1803
(lp1804
sV3BWK
p1805
(lp1806
(VPF00112
p1807
VPF00112
p1808
tp1809
a(VPF00112
p1810
VPF00112
p1811
tp1812
a(VPF00112
p1813
VPF00112
p1814
tp1815
a(VPF00112
p1816
VPF00112
p1817
tp1818
a(VPF00112
p1819
VPF00112
p1820
tp1821
a(VPF00112
p1822
VPF00112
p1823
tp1824
asV3N72
p1825
(lp1826
(VPF09229
p1827
VPF09229
p1828
tp1829
asV3PVF
p1830
(lp1831
sV3PNR
p1832
(lp1833
(VPF00112
p1834
VPF12628
p1835
tp1836
asV1NHW
p1837
(lp1838
(VPF13561
p1839
VPF13561
p1840
tp1841
a(VPF13561
p1842
VPF13561
p1843
tp1844
a(VPF13561
p1845
VPF13561
p1846
tp1847
a(VPF13561
p1848
VPF13561
p1849
tp1850
a(VPF13561
p1851
VPF13561
p1852
tp1853
asV1LEE
p1854
(lp1855
sV1ME6
p1856
(lp1857
sV2EPH
p1858
(lp1859
(VPF00274
p1860
VPF00274
p1861
tp1862
a(VPF00274
p1863
VPF00274
p1864
tp1865
a(VPF00274
p1866
VPF00274
p1867
tp1868
a(VPF00274
p1869
VPF00274
p1870
tp1871
a(VPF00274
p1872
VPF00274
p1873
tp1874
a(VPF00274
p1875
VPF00274
p1876
tp1877
asV3F9Q
p1878
(lp1879
sV1ZHG
p1880
(lp1881
(VPF07977
p1882
VPF07977
p1883
tp1884
asV4L11
p1885
(lp1886
sV4DP3
p1887
(lp1888
(VPF00186
p1889
VPF00303
p1890
tp1891
asV1LZQ
p1892
(lp1893
(VPF00077
p1894
VPF00077
p1895
tp1896
asV1Z6B
p1897
(lp1898
(VPF07977
p1899
VPF07977
p1900
tp1901
a(VPF07977
p1902
VPF07977
p1903
tp1904
a(VPF07977
p1905
VPF07977
p1906
tp1907
a(VPF07977
p1908
VPF07977
p1909
tp1910
a(VPF07977
p1911
VPF07977
p1912
tp1913
a(VPF07977
p1914
VPF07977
p1915
tp1916
asV2LOE
p1917
(lp1918
sV1VRW
p1919
(lp1920
(VPF13561
p1921
VPF13561
p1922
tp1923
a(VPF13561
p1924
VPF13561
p1925
tp1926
a(VPF13561
p1927
VPF13561
p1928
tp1929
a(VPF13561
p1930
VPF13561
p1931
tp1932
a(VPF13561
p1933
VPF13561
p1934
tp1935
asV4DPD
p1936
(lp1937
(VPF00186
p1938
VPF00303
p1939
tp1940
asV2I0O
p1941
(lp1942
(VPF00481
p1943
VPF00481
p1944
tp1945
asV1WOA
p1946
(lp1947
(VPF00121
p1948
VPF00121
p1949
tp1950
a(VPF00121
p1951
VPF00121
p1952
tp1953
a(VPF00121
p1954
VPF00121
p1955
tp1956
a(VPF00121
p1957
VPF00121
p1958
tp1959
asV1PA3
p1960
(lp1961
(VPF02798
p1962
VPF14497
p1963
tp1964
a(VPF02798
p1965
VPF14497
p1966
tp1967
a(VPF02798
p1968
VPF14497
p1969
tp1970
a(VPF14497
p1971
VPF02798
p1972
tp1973
a(VPF14497
p1974
VPF14497
p1975
tp1976
asV1WOB
p1977
(lp1978
(VPF00121
p1979
VPF00121
p1980
tp1981
a(VPF00121
p1982
VPF00121
p1983
tp1984
asV3AM3
p1985
(lp1986
(VPF13561
p1987
VPF13561
p1988
tp1989
a(VPF13561
p1990
VPF13561
p1991
tp1992
a(VPF13561
p1993
VPF13561
p1994
tp1995
a(VPF13561
p1996
VPF13561
p1997
tp1998
a(VPF13561
p1999
VPF13561
p2000
tp2001
asV1D5C
p2002
(lp2003
sV1YWG
p2004
(lp2005
(VPF00044
p2006
VPF02800
p2007
tp2008
a(VPF00044
p2009
VPF02800
p2010
tp2011
a(VPF00044
p2012
VPF02800
p2013
tp2014
a(VPF00044
p2015
VPF02800
p2016
tp2017
a(VPF00044
p2018
VPF02800
p2019
tp2020
a(VPF00044
p2021
VPF02800
p2022
tp2023
a(VPF00044
p2024
VPF02800
p2025
tp2026
a(VPF00044
p2027
VPF02800
p2028
tp2029
a(VPF02800
p2030
VPF02800
p2031
tp2032
a(VPF02800
p2033
VPF00044
p2034
tp2035
a(VPF02800
p2036
VPF00044
p2037
tp2038
a(VPF02800
p2039
VPF02800
p2040
tp2041
a(VPF02800
p2042
VPF02800
p2043
tp2044
a(VPF02800
p2045
VPF00044
p2046
tp2047
a(VPF02800
p2048
VPF00044
p2049
tp2050
a(VPF02800
p2051
VPF02800
p2052
tp2053
asV3N7H
p2054
(lp2055
(VPF01395
p2056
VPF01395
p2057
tp2058
asV1XE5
p2059
(lp2060
(VPF00026
p2061
VPF00026
p2062
tp2063
asV1XE6
p2064
(lp2065
(VPF00026
p2066
VPF00026
p2067
tp2068
asV3PWA
p2069
(lp2070
(VPF00121
p2071
VPF00121
p2072
tp2073
asV2VFD
p2074
(lp2075
(VPF00121
p2076
VPF00121
p2077
tp2078
asV3AM5
p2079
(lp2080
(VPF13561
p2081
VPF13561
p2082
tp2083
a(VPF13561
p2084
VPF13561
p2085
tp2086
a(VPF13561
p2087
VPF13561
p2088
tp2089
a(VPF13561
p2090
VPF13561
p2091
tp2092
a(VPF13561
p2093
VPF13561
p2094
tp2095
asV1OB1
p2096
(lp2097
(VPF12946
p2098
VPF12946
p2099
tp2100
asV3PZF
p2101
(lp2102
sV2NQ8
p2103
(lp2104
(VPF13561
p2105
VPF13561
p2106
tp2107
a(VPF13561
p2108
VPF13561
p2109
tp2110
a(VPF13561
p2111
VPF13561
p2112
tp2113
a(VPF13561
p2114
VPF13561
p2115
tp2116
a(VPF13561
p2117
VPF13561
p2118
tp2119
asV2IMI
p2120
(lp2121
(VPF00043
p2122
VPF00043
p2123
tp2124
a(VPF00043
p2125
VPF13417
p2126
tp2127
a(VPF13417
p2128
VPF00043
p2129
tp2130
a(VPF13417
p2131
VPF00043
p2132
tp2133
a(VPF13417
p2134
VPF00043
p2135
tp2136
asV3KYP
p2137
(lp2138
(VPF00956
p2139
VPF00956
p2140
tp2141
a(VPF00956
p2142
VPF00956
p2143
tp2144
a(VPF00956
p2145
VPF00956
p2146
tp2147
a(VPF00956
p2148
VPF00956
p2149
tp2150
asV2IMK
p2151
(lp2152
(VPF00043
p2153
VPF00043
p2154
tp2155
a(VPF00043
p2156
VPF13417
p2157
tp2158
a(VPF13417
p2159
VPF00043
p2160
tp2161
a(VPF13417
p2162
VPF00043
p2163
tp2164
a(VPF13417
p2165
VPF00043
p2166
tp2167
as.